; Function Attrs: mustprogress nofree norecurse nounwind willreturn memory(readwrite, inaccessiblemem: none) uwtable
define internal void @_ZN7rocksdb12_GLOBAL__N_115HashLinkListRep16FullListIterator11SeekToFirstEv(ptr nocapture noundef nonnull align 8 dereferenceable(72) %this) unnamed_addr #15 align 2 {
entry:
  %iter_ = getelementptr inbounds i8, ptr %this, i64 8
  %0 = load ptr, ptr %iter_, align 8
  %head_.i = getelementptr inbounds i8, ptr %0, i64 24
  %1 = load ptr, ptr %head_.i, align 8
  %next_.i.i = getelementptr inbounds i8, ptr %1, i64 8
  %2 = load atomic i64, ptr %next_.i.i acquire, align 8
  %atomic-temp.i.0.i.i.i = inttoptr i64 %2 to ptr
  %node_.i = getelementptr inbounds i8, ptr %this, i64 16
  store ptr %atomic-temp.i.0.i.i.i, ptr %node_.i, align 8
  ret void
}